; Function Attrs: mustprogress uwtable
define hidden void @_ZN19OpenColorIO_v2_5dev14ExponentOpDataC2Ev(ptr noundef nonnull align 8 dereferenceable(200) %0) unnamed_addr #3 align 2 {
  tail call void @_ZN19OpenColorIO_v2_5dev6OpDataC2Ev(ptr noundef nonnull align 8 dereferenceable(168) %0)
  store ptr getelementptr inbounds nuw inrange(-16, 88) (i8, ptr @_ZTVN19OpenColorIO_v2_5dev14ExponentOpDataE, i64 16), ptr %0, align 8, !tbaa !3
  %2 = getelementptr inbounds nuw i8, ptr %0, i64 168
  br label %4

3:                                                ; preds = %4
  ret void

4:                                                ; preds = %1, %4
  %indvars.iv = phi i64 [ 0, %1 ], [ %indvars.iv.next, %4 ]
  %5 = getelementptr inbounds nuw [4 x double], ptr %2, i64 0, i64 %indvars.iv
  store double 1.000000e+00, ptr %5, align 8, !tbaa !6
  %indvars.iv.next = add nuw nsw i64 %indvars.iv, 1
  %exitcond.not = icmp eq i64 %indvars.iv.next, 4
  br i1 %exitcond.not, label %3, label %4, !llvm.loop !9
}